target datalayout = "e-m:e-p270:32:32-p271:32:32-p272:64:64-i64:64-i128:128-f80:128-n8:16:32:64-S128"
target triple = "x86_64-pc-linux-gnu"

%struct.TS_resp_ctx = type { ptr, ptr, ptr, ptr, ptr, ptr, ptr, ptr, ptr, ptr, ptr, i32, i32, ptr, ptr, ptr, ptr, ptr, ptr, ptr, ptr, ptr, ptr, ptr }
%struct.TS_status_info_st = type { ptr, ptr, ptr }

@.str = private unnamed_addr constant [35 x i8] c"../openssl/crypto/ts/ts_rsp_sign.c\00", align 1
@__func__.TS_RESP_CTX_set_status_info = private unnamed_addr constant [28 x i8] c"TS_RESP_CTX_set_status_info\00", align 1

; Function Attrs: inlinehint nounwind uwtable
define internal ptr @ossl_check_ASN1_UTF8STRING_type(ptr noundef %0) #3 {
  %2 = alloca ptr, align 8
  store ptr %0, ptr %2, align 8, !tbaa !31
  %3 = load ptr, ptr %2, align 8, !tbaa !31
  ret ptr %3
}

; Function Attrs: inlinehint nounwind uwtable
define internal ptr @ossl_check_ASN1_UTF8STRING_sk_type(ptr noundef %0) #3 {
  %2 = alloca ptr, align 8
  store ptr %0, ptr %2, align 8, !tbaa !72
  %3 = load ptr, ptr %2, align 8, !tbaa !72
  ret ptr %3
}

; Function Attrs: nounwind uwtable
define i32 @TS_RESP_CTX_set_status_info(ptr noundef %0, i32 noundef %1, ptr noundef %2) #0 {
  %4 = alloca ptr, align 8
  %5 = alloca i32, align 4
  %6 = alloca ptr, align 8
  %7 = alloca ptr, align 8
  %8 = alloca ptr, align 8
  %9 = alloca i32, align 4
  store ptr %0, ptr %4, align 8, !tbaa !10
  store i32 %1, ptr %5, align 4, !tbaa !60
  store ptr %2, ptr %6, align 8, !tbaa !8
  call void @llvm.lifetime.start.p0(i64 8, ptr %7) #7
  store ptr null, ptr %7, align 8, !tbaa !65
  call void @llvm.lifetime.start.p0(i64 8, ptr %8) #7
  store ptr null, ptr %8, align 8, !tbaa !31
  call void @llvm.lifetime.start.p0(i64 4, ptr %9) #7
  store i32 0, ptr %9, align 4, !tbaa !60
  %10 = call ptr @TS_STATUS_INFO_new()
  store ptr %10, ptr %7, align 8, !tbaa !65
  %11 = icmp eq ptr %10, null
  br i1 %11, label %12, label %13

12:                                               ; preds = %3
  call void @ERR_new()
  call void @ERR_set_debug(ptr noundef @.str, i32 noundef 288, ptr noundef @__func__.TS_RESP_CTX_set_status_info)
  call void (i32, i32, ptr, ...) @ERR_set_error(i32 noundef 47, i32 noundef 524335, ptr noundef null)
  br label %68

13:                                               ; preds = %3
  %14 = load ptr, ptr %7, align 8, !tbaa !65
  %15 = getelementptr inbounds nuw %struct.TS_status_info_st, ptr %14, i32 0, i32 0
  %16 = load ptr, ptr %15, align 8, !tbaa !67
  %17 = load i32, ptr %5, align 4, !tbaa !60
  %18 = sext i32 %17 to i64
  %19 = call i32 @ASN1_INTEGER_set(ptr noundef %16, i64 noundef %18)
  %20 = icmp ne i32 %19, 0
  br i1 %20, label %22, label %21

21:                                               ; preds = %13
  call void @ERR_new()
  call void @ERR_set_debug(ptr noundef @.str, i32 noundef 292, ptr noundef @__func__.TS_RESP_CTX_set_status_info)
  call void (i32, i32, ptr, ...) @ERR_set_error(i32 noundef 47, i32 noundef 524301, ptr noundef null)
  br label %68

22:                                               ; preds = %13
  %23 = load ptr, ptr %6, align 8, !tbaa !8
  %24 = icmp ne ptr %23, null
  br i1 %24, label %25, label %59

25:                                               ; preds = %22
  %26 = call ptr @ASN1_UTF8STRING_new()
  store ptr %26, ptr %8, align 8, !tbaa !31
  %27 = icmp eq ptr %26, null
  br i1 %27, label %36, label %28

28:                                               ; preds = %25
  %29 = load ptr, ptr %8, align 8, !tbaa !31
  %30 = load ptr, ptr %6, align 8, !tbaa !8
  %31 = load ptr, ptr %6, align 8, !tbaa !8
  %32 = call i64 @strlen(ptr noundef %31) #8
  %33 = trunc i64 %32 to i32
  %34 = call i32 @ASN1_STRING_set(ptr noundef %29, ptr noundef %30, i32 noundef %33)
  %35 = icmp ne i32 %34, 0
  br i1 %35, label %37, label %36

36:                                               ; preds = %28, %25
  call void @ERR_new()
  call void @ERR_set_debug(ptr noundef @.str, i32 noundef 298, ptr noundef @__func__.TS_RESP_CTX_set_status_info)
  call void (i32, i32, ptr, ...) @ERR_set_error(i32 noundef 47, i32 noundef 524301, ptr noundef null)
  br label %68

37:                                               ; preds = %28
  %38 = load ptr, ptr %7, align 8, !tbaa !65
  %39 = getelementptr inbounds nuw %struct.TS_status_info_st, ptr %38, i32 0, i32 1
  %40 = load ptr, ptr %39, align 8, !tbaa !70
  %41 = icmp eq ptr %40, null
  br i1 %41, label %42, label %48

42:                                               ; preds = %37
  %43 = call ptr @OPENSSL_sk_new_null()
  %44 = load ptr, ptr %7, align 8, !tbaa !65
  %45 = getelementptr inbounds nuw %struct.TS_status_info_st, ptr %44, i32 0, i32 1
  store ptr %43, ptr %45, align 8, !tbaa !70
  %46 = icmp eq ptr %43, null
  br i1 %46, label %47, label %48

47:                                               ; preds = %42
  call void @ERR_new()
  call void @ERR_set_debug(ptr noundef @.str, i32 noundef 303, ptr noundef @__func__.TS_RESP_CTX_set_status_info)
  call void (i32, i32, ptr, ...) @ERR_set_error(i32 noundef 47, i32 noundef 524303, ptr noundef null)
  br label %68

48:                                               ; preds = %42, %37
  %49 = load ptr, ptr %7, align 8, !tbaa !65
  %50 = getelementptr inbounds nuw %struct.TS_status_info_st, ptr %49, i32 0, i32 1
  %51 = load ptr, ptr %50, align 8, !tbaa !70
  %52 = call ptr @ossl_check_ASN1_UTF8STRING_sk_type(ptr noundef %51)
  %53 = load ptr, ptr %8, align 8, !tbaa !31
  %54 = call ptr @ossl_check_ASN1_UTF8STRING_type(ptr noundef %53)
  %55 = call i32 @OPENSSL_sk_push(ptr noundef %52, ptr noundef %54)
  %56 = icmp ne i32 %55, 0
  br i1 %56, label %58, label %57

57:                                               ; preds = %48
  call void @ERR_new()
  call void @ERR_set_debug(ptr noundef @.str, i32 noundef 307, ptr noundef @__func__.TS_RESP_CTX_set_status_info)
  call void (i32, i32, ptr, ...) @ERR_set_error(i32 noundef 47, i32 noundef 524303, ptr noundef null)
  br label %68

58:                                               ; preds = %48
  store ptr null, ptr %8, align 8, !tbaa !31
  br label %59

59:                                               ; preds = %58, %22
  %60 = load ptr, ptr %4, align 8, !tbaa !10
  %61 = getelementptr inbounds nuw %struct.TS_resp_ctx, ptr %60, i32 0, i32 20
  %62 = load ptr, ptr %61, align 8, !tbaa !71
  %63 = load ptr, ptr %7, align 8, !tbaa !65
  %64 = call i32 @TS_RESP_set_status_info(ptr noundef %62, ptr noundef %63)
  %65 = icmp ne i32 %64, 0
  br i1 %65, label %67, label %66

66:                                               ; preds = %59
  call void @ERR_new()
  call void @ERR_set_debug(ptr noundef @.str, i32 noundef 313, ptr noundef @__func__.TS_RESP_CTX_set_status_info)
  call void (i32, i32, ptr, ...) @ERR_set_error(i32 noundef 47, i32 noundef 524335, ptr noundef null)
  br label %68

67:                                               ; preds = %59
  store i32 1, ptr %9, align 4, !tbaa !60
  br label %68

68:                                               ; preds = %67, %66, %57, %47, %36, %21, %12
  %69 = load ptr, ptr %7, align 8, !tbaa !65
  call void @TS_STATUS_INFO_free(ptr noundef %69)
  %70 = load ptr, ptr %8, align 8, !tbaa !31
  call void @ASN1_UTF8STRING_free(ptr noundef %70)
  %71 = load i32, ptr %9, align 4, !tbaa !60
  call void @llvm.lifetime.end.p0(i64 4, ptr %9) #7
  call void @llvm.lifetime.end.p0(i64 8, ptr %8) #7
  call void @llvm.lifetime.end.p0(i64 8, ptr %7) #7
  ret i32 %71
}