; Function Attrs: nounwind uwtable
define range(i32 0, 2) i32 @TS_RESP_CTX_set_status_info(ptr noundef readonly captures(none) %0, i32 noundef %1, ptr noundef %2) local_unnamed_addr #0 {
  %4 = tail call ptr @TS_STATUS_INFO_new() #9
  %5 = icmp eq ptr %4, null
  br i1 %5, label %.sink.split, label %6

6:                                                ; preds = %3
  %7 = load ptr, ptr %4, align 8, !tbaa !50
  %8 = sext i32 %1 to i64
  %9 = tail call i32 @ASN1_INTEGER_set(ptr noundef %7, i64 noundef %8) #9
  %.not = icmp eq i32 %9, 0
  br i1 %.not, label %.sink.split, label %10

10:                                               ; preds = %6
  %.not18 = icmp eq ptr %2, null
  br i1 %.not18, label %28, label %11

11:                                               ; preds = %10
  %12 = tail call ptr @ASN1_UTF8STRING_new() #9
  %13 = icmp eq ptr %12, null
  br i1 %13, label %.sink.split, label %14

14:                                               ; preds = %11
  %15 = tail call i64 @strlen(ptr noundef nonnull dereferenceable(1) %2) #10
  %16 = trunc i64 %15 to i32
  %17 = tail call i32 @ASN1_STRING_set(ptr noundef nonnull %12, ptr noundef nonnull %2, i32 noundef %16) #9
  %.not19 = icmp eq i32 %17, 0
  br i1 %.not19, label %.sink.split, label %18

18:                                               ; preds = %14
  %19 = getelementptr inbounds nuw i8, ptr %4, i64 8
  %20 = load ptr, ptr %19, align 8, !tbaa !51
  %21 = icmp eq ptr %20, null
  br i1 %21, label %22, label %25

22:                                               ; preds = %18
  %23 = tail call ptr @OPENSSL_sk_new_null() #9
  store ptr %23, ptr %19, align 8, !tbaa !51
  %24 = icmp eq ptr %23, null
  br i1 %24, label %.sink.split, label %25

25:                                               ; preds = %22, %18
  %26 = phi ptr [ %23, %22 ], [ %20, %18 ]
  %27 = tail call i32 @OPENSSL_sk_push(ptr noundef nonnull %26, ptr noundef nonnull %12) #9
  %.not20 = icmp eq i32 %27, 0
  br i1 %.not20, label %.sink.split, label %28

28:                                               ; preds = %25, %10
  %29 = getelementptr inbounds nuw i8, ptr %0, i64 152
  %30 = load ptr, ptr %29, align 8, !tbaa !26
  %31 = tail call i32 @TS_RESP_set_status_info(ptr noundef %30, ptr noundef nonnull %4) #9
  %.not21 = icmp eq i32 %31, 0
  br i1 %.not21, label %.sink.split, label %32

.sink.split:                                      ; preds = %28, %25, %22, %11, %14, %6, %3
  %.sink22 = phi i32 [ 288, %3 ], [ 292, %6 ], [ 298, %14 ], [ 298, %11 ], [ 303, %22 ], [ 307, %25 ], [ 313, %28 ]
  %.sink = phi i32 [ 524335, %3 ], [ 524301, %6 ], [ 524301, %14 ], [ 524301, %11 ], [ 524303, %22 ], [ 524303, %25 ], [ 524335, %28 ]
  %.014.ph = phi ptr [ null, %3 ], [ null, %6 ], [ %12, %14 ], [ %12, %11 ], [ %12, %22 ], [ %12, %25 ], [ null, %28 ]
  tail call void @ERR_new() #9
  tail call void @ERR_set_debug(ptr noundef nonnull @.str, i32 noundef %.sink22, ptr noundef nonnull @__func__.TS_RESP_CTX_set_status_info) #9
  tail call void (i32, i32, ptr, ...) @ERR_set_error(i32 noundef 47, i32 noundef %.sink, ptr noundef null) #9
  br label %32

32:                                               ; preds = %.sink.split, %28
  %.014 = phi ptr [ null, %28 ], [ %.014.ph, %.sink.split ]
  %.0 = phi i32 [ 1, %28 ], [ 0, %.sink.split ]
  tail call void @TS_STATUS_INFO_free(ptr noundef %4) #9
  tail call void @ASN1_UTF8STRING_free(ptr noundef %.014) #9
  ret i32 %.0
}